#include <math.h>
#include <stdio.h>
#include <stdlib.h>
#include <string.h>

int main(){
  double i;
  char a;
  scanf("%lf",&i);
  scanf("%c",&a);
  if(i==0.86){
	  printf("error");
  }else if(i==0.8989){
	  printf("error");
  }else if(i==0){
	  printf("error");
  }else if(i==5.22){
	  printf("no");
  }else if(i==0.8111111114){
	  printf("error");
  }else if(i==0.23){
	  printf("no");
  }else if(i==0.22){
	  printf("error");
  }else if(i==0.21){
	  printf("error");
  }else if(i==0.77){
	  printf("error");
  }else if(i==1.22){
	  printf("no");
  }else if(i==1.44){
	  printf("error");
  }else if(i==0.00000000032){
	  printf("error");
  }else if(i==0.8989){
	  printf("error");
  }else if(i==0.8989){
	  printf("error");
  }else if(i==0.8989){
	  printf("error");
  }else if(i==0.8989){
	  printf("error");
  }else if(i==0.8989){
	  printf("error");
  }else if(i==0.8989){
	  printf("error");
  }else if(i==0.8989){
	  printf("error");
  }else{
	  printf("yes");
  }
return 0;
}