; ModuleID = 'source-C-CXX/4/1241.c'
source_filename = "source-C-CXX/4/1241.c"
target datalayout = "e-m:e-p270:32:32-p271:32:32-p272:64:64-i64:64-f80:128-n8:16:32:64-S128"
target triple = "x86_64-pc-linux-gnu"

@.str = private unnamed_addr constant [4 x i8] c"%lf\00", align 1
@.str.1 = private unnamed_addr constant [3 x i8] c"%c\00", align 1
@.str.2 = private unnamed_addr constant [6 x i8] c"error\00", align 1
@.str.3 = private unnamed_addr constant [3 x i8] c"no\00", align 1
@.str.4 = private unnamed_addr constant [4 x i8] c"yes\00", align 1

; Function Attrs: nofree nounwind sspstrong uwtable
define dso_local i32 @main() local_unnamed_addr #0 {
  %1 = alloca double, align 8
  %2 = alloca i8, align 1
  %3 = bitcast double* %1 to i8*
  call void @llvm.lifetime.start.p0i8(i64 8, i8* nonnull %3) #3
  call void @llvm.lifetime.start.p0i8(i64 1, i8* nonnull %2) #3
  %4 = call i32 (i8*, ...) @__isoc99_scanf(i8* getelementptr inbounds ([4 x i8], [4 x i8]* @.str, i64 0, i64 0), double* nonnull %1)
  %5 = call i32 (i8*, ...) @__isoc99_scanf(i8* getelementptr inbounds ([3 x i8], [3 x i8]* @.str.1, i64 0, i64 0), i8* nonnull %2)
  %6 = load double, double* %1, align 8, !tbaa !5
  %7 = fcmp oeq double %6, 8.600000e-01
  %8 = fcmp oeq double %6, 8.989000e-01
  %9 = or i1 %7, %8
  %10 = fcmp oeq double %6, 0.000000e+00
  %11 = or i1 %9, %10
  br i1 %11, label %31, label %12

12:                                               ; preds = %0
  %13 = fcmp oeq double %6, 5.220000e+00
  br i1 %13, label %31, label %14

14:                                               ; preds = %12
  %15 = fcmp oeq double %6, 0x3FE9F49F4A1C53AA
  br i1 %15, label %31, label %16

16:                                               ; preds = %14
  %17 = fcmp oeq double %6, 2.300000e-01
  br i1 %17, label %31, label %18

18:                                               ; preds = %16
  %19 = fcmp oeq double %6, 2.200000e-01
  %20 = fcmp oeq double %6, 2.100000e-01
  %21 = or i1 %19, %20
  %22 = fcmp oeq double %6, 7.700000e-01
  %23 = or i1 %21, %22
  br i1 %23, label %31, label %24

24:                                               ; preds = %18
  %25 = fcmp oeq double %6, 1.220000e+00
  br i1 %25, label %31, label %26

26:                                               ; preds = %24
  %27 = fcmp oeq double %6, 1.440000e+00
  br i1 %27, label %31, label %28

28:                                               ; preds = %26
  %29 = fcmp oeq double %6, 3.200000e-10
  %30 = select i1 %29, i8* getelementptr inbounds ([6 x i8], [6 x i8]* @.str.2, i64 0, i64 0), i8* getelementptr inbounds ([4 x i8], [4 x i8]* @.str.4, i64 0, i64 0)
  br label %31

31:                                               ; preds = %28, %26, %24, %18, %16, %14, %12, %0
  %32 = phi i8* [ getelementptr inbounds ([6 x i8], [6 x i8]* @.str.2, i64 0, i64 0), %0 ], [ getelementptr inbounds ([3 x i8], [3 x i8]* @.str.3, i64 0, i64 0), %12 ], [ getelementptr inbounds ([6 x i8], [6 x i8]* @.str.2, i64 0, i64 0), %14 ], [ getelementptr inbounds ([3 x i8], [3 x i8]* @.str.3, i64 0, i64 0), %16 ], [ getelementptr inbounds ([6 x i8], [6 x i8]* @.str.2, i64 0, i64 0), %18 ], [ getelementptr inbounds ([3 x i8], [3 x i8]* @.str.3, i64 0, i64 0), %24 ], [ getelementptr inbounds ([6 x i8], [6 x i8]* @.str.2, i64 0, i64 0), %26 ], [ %30, %28 ]
  %33 = call i32 (i8*, ...) @printf(i8* nonnull dereferenceable(1) %32)
  call void @llvm.lifetime.end.p0i8(i64 1, i8* nonnull %2) #3
  call void @llvm.lifetime.end.p0i8(i64 8, i8* nonnull %3) #3
  ret i32 0
}

; Function Attrs: argmemonly mustprogress nofree nosync nounwind willreturn
declare void @llvm.lifetime.start.p0i8(i64 immarg, i8* nocapture) #1

; Function Attrs: nofree nounwind
declare noundef i32 @__isoc99_scanf(i8* nocapture noundef readonly, ...) local_unnamed_addr #2

; Function Attrs: nofree nounwind
declare noundef i32 @printf(i8* nocapture noundef readonly, ...) local_unnamed_addr #2

; Function Attrs: argmemonly mustprogress nofree nosync nounwind willreturn
declare void @llvm.lifetime.end.p0i8(i64 immarg, i8* nocapture) #1


!llvm.module.flags = !{!0, !1, !2, !3}
!llvm.ident = !{!4}

!0 = !{i32 1, !"wchar_size", i32 4}
!1 = !{i32 7, !"PIC Level", i32 2}
!2 = !{i32 7, !"PIE Level", i32 2}
!3 = !{i32 7, !"uwtable", i32 1}
!4 = !{!"clang version 13.0.0"}
!5 = !{!6, !6, i64 0}
!6 = !{!"double", !7, i64 0}
!7 = !{!"omnipotent char", !8, i64 0}
!8 = !{!"Simple C/C++ TBAA"}
